#include <math.h>
#include <stdio.h>
#include <stdlib.h>
#include <string.h>


int main(){
	int sz[1000];
	int n,k,i,t,l;
	
	scanf("%d%d",&n,&k);
	for(i=0;i<n;i++){
		scanf("%d",&sz[i]);
	}
	t=0;
	while(t<n){
		l=1;
		while(l<n){
			if(sz[t]+sz[l]==k){
				printf("yes");
				l++;
				break;}
			else{l++;}
		}
		
		if(sz[t]+sz[l-1]==k){
			break;}	
		t++;	
	}

	if(t==n){
		printf("no");}

return 0;
	}
	